target datalayout = "e-m:e-p270:32:32-p271:32:32-p272:64:64-i64:64-i128:128-f80:128-n8:16:32:64-S128"
target triple = "x86_64-pc-linux-gnu"

; Function Attrs: alwaysinline nounwind
define internal ptr @memcpy.inline(ptr noalias %0, ptr noalias %1, i64 %2) #9 {
  %4 = alloca ptr, align 8
  %5 = alloca ptr, align 8
  %6 = alloca i64, align 8
  store ptr %0, ptr %4, align 8
  store ptr %1, ptr %5, align 8
  store i64 %2, ptr %6, align 8
  %7 = load ptr, ptr %4, align 8
  %8 = load ptr, ptr %5, align 8
  %9 = load i64, ptr %6, align 8
  %10 = load ptr, ptr %4, align 8
  %11 = call i64 @llvm.objectsize.i64.p0(ptr %10, i1 false, i1 true, i1 true)
  %12 = call ptr @__memcpy_chk(ptr noundef %7, ptr noundef %8, i64 noundef %9, i64 noundef %11) #17
  ret ptr %12
}

; Function Attrs: nounwind null_pointer_is_valid sspstrong uwtable
define hidden void @ccm_init_block(ptr noundef %0, i1 noundef zeroext %1, i32 noundef %2, i64 noundef %3, i32 noundef %4, i8 noundef zeroext %5, i32 noundef %6, ptr noundef %7) #8 {
  %9 = alloca ptr, align 8
  %10 = alloca i8, align 1
  %11 = alloca i32, align 4
  %12 = alloca i64, align 8
  %13 = alloca i32, align 4
  %14 = alloca i8, align 1
  %15 = alloca i32, align 4
  %16 = alloca ptr, align 8
  %17 = alloca i32, align 4
  store ptr %0, ptr %9, align 8
  %18 = zext i1 %1 to i8
  store i8 %18, ptr %10, align 1
  store i32 %2, ptr %11, align 4
  store i64 %3, ptr %12, align 8
  store i32 %4, ptr %13, align 4
  store i8 %5, ptr %14, align 1
  store i32 %6, ptr %15, align 4
  store ptr %7, ptr %16, align 8
  call void @llvm.lifetime.start.p0(i64 4, ptr %17) #17
  store i32 0, ptr %17, align 4
  %19 = load ptr, ptr %9, align 8
  %20 = load i32, ptr %17, align 4
  %21 = sext i32 %20 to i64
  %22 = getelementptr i8, ptr %19, i64 %21
  store i8 1, ptr %22, align 1
  %23 = load i32, ptr %11, align 4
  %24 = icmp sgt i32 %23, 0
  br i1 %24, label %25, label %38

25:                                               ; preds = %8
  %26 = load i32, ptr %11, align 4
  %27 = sub i32 %26, 2
  %28 = sdiv i32 %27, 2
  %29 = shl i32 %28, 3
  %30 = load ptr, ptr %9, align 8
  %31 = load i32, ptr %17, align 4
  %32 = sext i32 %31 to i64
  %33 = getelementptr i8, ptr %30, i64 %32
  %34 = load i8, ptr %33, align 1
  %35 = sext i8 %34 to i32
  %36 = or i32 %35, %29
  %37 = trunc i32 %36 to i8
  store i8 %37, ptr %33, align 1
  br label %38

38:                                               ; preds = %25, %8
  %39 = load i8, ptr %10, align 1, !range !6, !noundef !7
  %40 = trunc i8 %39 to i1
  br i1 %40, label %41, label %50

41:                                               ; preds = %38
  %42 = load ptr, ptr %9, align 8
  %43 = load i32, ptr %17, align 4
  %44 = sext i32 %43 to i64
  %45 = getelementptr i8, ptr %42, i64 %44
  %46 = load i8, ptr %45, align 1
  %47 = sext i8 %46 to i32
  %48 = or i32 %47, 64
  %49 = trunc i32 %48 to i8
  store i8 %49, ptr %45, align 1
  br label %50

50:                                               ; preds = %41, %38
  %51 = load i32, ptr %17, align 4
  %52 = add i32 %51, 1
  store i32 %52, ptr %17, align 4
  %53 = load ptr, ptr %16, align 8
  %54 = icmp eq ptr %53, null
  br i1 %54, label %55, label %170

55:                                               ; preds = %50
  %56 = load i64, ptr %12, align 8
  %57 = lshr i64 %56, 56
  %58 = and i64 %57, 255
  %59 = trunc i64 %58 to i8
  %60 = load ptr, ptr %9, align 8
  %61 = load i32, ptr %17, align 4
  %62 = add i32 %61, 1
  store i32 %62, ptr %17, align 4
  %63 = sext i32 %61 to i64
  %64 = getelementptr i8, ptr %60, i64 %63
  store i8 %59, ptr %64, align 1
  %65 = load i64, ptr %12, align 8
  %66 = lshr i64 %65, 48
  %67 = and i64 %66, 255
  %68 = trunc i64 %67 to i8
  %69 = load ptr, ptr %9, align 8
  %70 = load i32, ptr %17, align 4
  %71 = add i32 %70, 1
  store i32 %71, ptr %17, align 4
  %72 = sext i32 %70 to i64
  %73 = getelementptr i8, ptr %69, i64 %72
  store i8 %68, ptr %73, align 1
  %74 = load i64, ptr %12, align 8
  %75 = lshr i64 %74, 40
  %76 = and i64 %75, 255
  %77 = trunc i64 %76 to i8
  %78 = load ptr, ptr %9, align 8
  %79 = load i32, ptr %17, align 4
  %80 = add i32 %79, 1
  store i32 %80, ptr %17, align 4
  %81 = sext i32 %79 to i64
  %82 = getelementptr i8, ptr %78, i64 %81
  store i8 %77, ptr %82, align 1
  %83 = load i64, ptr %12, align 8
  %84 = lshr i64 %83, 32
  %85 = and i64 %84, 255
  %86 = trunc i64 %85 to i8
  %87 = load ptr, ptr %9, align 8
  %88 = load i32, ptr %17, align 4
  %89 = add i32 %88, 1
  store i32 %89, ptr %17, align 4
  %90 = sext i32 %88 to i64
  %91 = getelementptr i8, ptr %87, i64 %90
  store i8 %86, ptr %91, align 1
  %92 = load i64, ptr %12, align 8
  %93 = lshr i64 %92, 24
  %94 = and i64 %93, 255
  %95 = trunc i64 %94 to i8
  %96 = load ptr, ptr %9, align 8
  %97 = load i32, ptr %17, align 4
  %98 = add i32 %97, 1
  store i32 %98, ptr %17, align 4
  %99 = sext i32 %97 to i64
  %100 = getelementptr i8, ptr %96, i64 %99
  store i8 %95, ptr %100, align 1
  %101 = load i64, ptr %12, align 8
  %102 = lshr i64 %101, 16
  %103 = and i64 %102, 255
  %104 = trunc i64 %103 to i8
  %105 = load ptr, ptr %9, align 8
  %106 = load i32, ptr %17, align 4
  %107 = add i32 %106, 1
  store i32 %107, ptr %17, align 4
  %108 = sext i32 %106 to i64
  %109 = getelementptr i8, ptr %105, i64 %108
  store i8 %104, ptr %109, align 1
  %110 = load i64, ptr %12, align 8
  %111 = lshr i64 %110, 8
  %112 = and i64 %111, 255
  %113 = trunc i64 %112 to i8
  %114 = load ptr, ptr %9, align 8
  %115 = load i32, ptr %17, align 4
  %116 = add i32 %115, 1
  store i32 %116, ptr %17, align 4
  %117 = sext i32 %115 to i64
  %118 = getelementptr i8, ptr %114, i64 %117
  store i8 %113, ptr %118, align 1
  %119 = load i64, ptr %12, align 8
  %120 = lshr i64 %119, 0
  %121 = and i64 %120, 255
  %122 = trunc i64 %121 to i8
  %123 = load ptr, ptr %9, align 8
  %124 = load i32, ptr %17, align 4
  %125 = add i32 %124, 1
  store i32 %125, ptr %17, align 4
  %126 = sext i32 %124 to i64
  %127 = getelementptr i8, ptr %123, i64 %126
  store i8 %122, ptr %127, align 1
  %128 = load i32, ptr %13, align 4
  %129 = lshr i32 %128, 24
  %130 = and i32 %129, 255
  %131 = trunc i32 %130 to i8
  %132 = load ptr, ptr %9, align 8
  %133 = load i32, ptr %17, align 4
  %134 = add i32 %133, 1
  store i32 %134, ptr %17, align 4
  %135 = sext i32 %133 to i64
  %136 = getelementptr i8, ptr %132, i64 %135
  store i8 %131, ptr %136, align 1
  %137 = load i32, ptr %13, align 4
  %138 = lshr i32 %137, 16
  %139 = and i32 %138, 255
  %140 = trunc i32 %139 to i8
  %141 = load ptr, ptr %9, align 8
  %142 = load i32, ptr %17, align 4
  %143 = add i32 %142, 1
  store i32 %143, ptr %17, align 4
  %144 = sext i32 %142 to i64
  %145 = getelementptr i8, ptr %141, i64 %144
  store i8 %140, ptr %145, align 1
  %146 = load i32, ptr %13, align 4
  %147 = lshr i32 %146, 8
  %148 = and i32 %147, 255
  %149 = trunc i32 %148 to i8
  %150 = load ptr, ptr %9, align 8
  %151 = load i32, ptr %17, align 4
  %152 = add i32 %151, 1
  store i32 %152, ptr %17, align 4
  %153 = sext i32 %151 to i64
  %154 = getelementptr i8, ptr %150, i64 %153
  store i8 %149, ptr %154, align 1
  %155 = load i32, ptr %13, align 4
  %156 = lshr i32 %155, 0
  %157 = and i32 %156, 255
  %158 = trunc i32 %157 to i8
  %159 = load ptr, ptr %9, align 8
  %160 = load i32, ptr %17, align 4
  %161 = add i32 %160, 1
  store i32 %161, ptr %17, align 4
  %162 = sext i32 %160 to i64
  %163 = getelementptr i8, ptr %159, i64 %162
  store i8 %158, ptr %163, align 1
  %164 = load i8, ptr %14, align 1
  %165 = load ptr, ptr %9, align 8
  %166 = load i32, ptr %17, align 4
  %167 = add i32 %166, 1
  store i32 %167, ptr %17, align 4
  %168 = sext i32 %166 to i64
  %169 = getelementptr i8, ptr %165, i64 %168
  store i8 %164, ptr %169, align 1
  br label %179

170:                                              ; preds = %50
  %171 = load ptr, ptr %9, align 8
  %172 = load i32, ptr %17, align 4
  %173 = sext i32 %172 to i64
  %174 = getelementptr i8, ptr %171, i64 %173
  %175 = load ptr, ptr %16, align 8
  %176 = call ptr @memcpy.inline(ptr noundef %174, ptr noundef %175, i64 noundef 13) #17
  %177 = load i32, ptr %17, align 4
  %178 = add i32 %177, 13
  store i32 %178, ptr %17, align 4
  br label %179

179:                                              ; preds = %170, %55
  %180 = load i32, ptr %15, align 4
  %181 = ashr i32 %180, 8
  %182 = and i32 %181, 255
  %183 = trunc i32 %182 to i8
  %184 = load ptr, ptr %9, align 8
  %185 = load i32, ptr %17, align 4
  %186 = add i32 %185, 1
  store i32 %186, ptr %17, align 4
  %187 = sext i32 %185 to i64
  %188 = getelementptr i8, ptr %184, i64 %187
  store i8 %183, ptr %188, align 1
  %189 = load i32, ptr %15, align 4
  %190 = ashr i32 %189, 0
  %191 = and i32 %190, 255
  %192 = trunc i32 %191 to i8
  %193 = load ptr, ptr %9, align 8
  %194 = load i32, ptr %17, align 4
  %195 = sext i32 %194 to i64
  %196 = getelementptr i8, ptr %193, i64 %195
  store i8 %192, ptr %196, align 1
  call void @llvm.lifetime.end.p0(i64 4, ptr %17) #17
  ret void
}