; Function Attrs: nofree nounwind null_pointer_is_valid sspstrong memory(argmem: readwrite) uwtable
define hidden void @ccm_init_block(ptr noundef initializes((0, 1)) %0, i1 noundef zeroext %1, i32 noundef %2, i64 noundef %3, i32 noundef %4, i8 noundef zeroext %5, i32 noundef %6, ptr noundef readonly captures(address_is_null) %7) local_unnamed_addr #6 {
  %9 = icmp sgt i32 %2, 0
  br i1 %9, label %10, label %15

10:                                               ; preds = %8
  %11 = add nsw i32 %2, -2
  %12 = sdiv i32 %11, 2
  %.tr = trunc i32 %12 to i8
  %13 = shl i8 %.tr, 3
  %14 = or disjoint i8 %13, 1
  br label %15

15:                                               ; preds = %10, %8
  %storemerge = phi i8 [ %14, %10 ], [ 1, %8 ]
  %16 = or i8 %storemerge, 64
  %spec.select = select i1 %1, i8 %16, i8 %storemerge
  store i8 %spec.select, ptr %0, align 1
  %17 = icmp eq ptr %7, null
  br i1 %17, label %18, label %54

18:                                               ; preds = %15
  %19 = lshr i64 %3, 56
  %20 = trunc nuw i64 %19 to i8
  %21 = getelementptr i8, ptr %0, i64 1
  store i8 %20, ptr %21, align 1
  %22 = lshr i64 %3, 48
  %23 = trunc i64 %22 to i8
  %24 = getelementptr i8, ptr %0, i64 2
  store i8 %23, ptr %24, align 1
  %25 = lshr i64 %3, 40
  %26 = trunc i64 %25 to i8
  %27 = getelementptr i8, ptr %0, i64 3
  store i8 %26, ptr %27, align 1
  %28 = lshr i64 %3, 32
  %29 = trunc i64 %28 to i8
  %30 = getelementptr i8, ptr %0, i64 4
  store i8 %29, ptr %30, align 1
  %31 = lshr i64 %3, 24
  %32 = trunc i64 %31 to i8
  %33 = getelementptr i8, ptr %0, i64 5
  store i8 %32, ptr %33, align 1
  %34 = lshr i64 %3, 16
  %35 = trunc i64 %34 to i8
  %36 = getelementptr i8, ptr %0, i64 6
  store i8 %35, ptr %36, align 1
  %37 = lshr i64 %3, 8
  %38 = trunc i64 %37 to i8
  %39 = getelementptr i8, ptr %0, i64 7
  store i8 %38, ptr %39, align 1
  %40 = trunc i64 %3 to i8
  %41 = getelementptr i8, ptr %0, i64 8
  store i8 %40, ptr %41, align 1
  %42 = lshr i32 %4, 24
  %43 = trunc nuw i32 %42 to i8
  %44 = getelementptr i8, ptr %0, i64 9
  store i8 %43, ptr %44, align 1
  %45 = lshr i32 %4, 16
  %46 = trunc i32 %45 to i8
  %47 = getelementptr i8, ptr %0, i64 10
  store i8 %46, ptr %47, align 1
  %48 = lshr i32 %4, 8
  %49 = trunc i32 %48 to i8
  %50 = getelementptr i8, ptr %0, i64 11
  store i8 %49, ptr %50, align 1
  %51 = trunc i32 %4 to i8
  %52 = getelementptr i8, ptr %0, i64 12
  store i8 %51, ptr %52, align 1
  %53 = getelementptr i8, ptr %0, i64 13
  store i8 %5, ptr %53, align 1
  br label %56

54:                                               ; preds = %15
  %55 = getelementptr i8, ptr %0, i64 1
  tail call void @llvm.memcpy.p0.p0.i64(ptr noundef align 1 dereferenceable(13) %55, ptr noundef nonnull align 1 dereferenceable(13) %7, i64 noundef 13, i1 noundef false) #19
  br label %56

56:                                               ; preds = %54, %18
  %57 = lshr i32 %6, 8
  %58 = trunc i32 %57 to i8
  %59 = getelementptr i8, ptr %0, i64 14
  store i8 %58, ptr %59, align 1
  %60 = trunc i32 %6 to i8
  %61 = getelementptr i8, ptr %0, i64 15
  store i8 %60, ptr %61, align 1
  ret void
}